; Function Attrs: nounwind uwtable
define internal fastcc range(i32 0, 2) i32 @outline_push_point(ptr noundef %0, i32 noundef range(i32 0, 5) %1, ptr noundef readonly captures(address_is_null) %2, ptr noundef readonly captures(address_is_null) %3, ptr noundef readonly captures(address_is_null) %4) unnamed_addr #0 {
  %6 = alloca %struct._lv_event_t, align 8
  %7 = alloca %struct._lv_freetype_outline_event_param_t, align 8
  %8 = tail call ptr @lv_freetype_get_context() #9
  call void @llvm.lifetime.start.p0(i64 48, ptr nonnull %7) #9
  call void @lv_memset(ptr noundef nonnull %7, i8 noundef zeroext 0, i64 noundef 48) #9
  store ptr %0, ptr %7, align 8, !tbaa !67
  %9 = getelementptr inbounds nuw i8, ptr %7, i64 8
  store i32 %1, ptr %9, align 8, !tbaa !82
  %10 = getelementptr inbounds nuw i8, ptr %7, i64 20
  %.not.i = icmp eq ptr %2, null
  br i1 %.not.i, label %ft_vector_to_lv_vector.exit, label %11

11:                                               ; preds = %5
  %12 = load i64, ptr %2, align 8, !tbaa !83
  %13 = trunc i64 %12 to i32
  %14 = getelementptr inbounds nuw i8, ptr %2, i64 8
  %15 = load i64, ptr %14, align 8, !tbaa !84
  %16 = trunc i64 %15 to i32
  br label %ft_vector_to_lv_vector.exit

ft_vector_to_lv_vector.exit:                      ; preds = %5, %11
  %.sink.i = phi i32 [ %13, %11 ], [ 0, %5 ]
  %17 = phi i32 [ %16, %11 ], [ 0, %5 ]
  store i32 %.sink.i, ptr %10, align 4, !tbaa !85
  %18 = getelementptr inbounds nuw i8, ptr %7, i64 24
  store i32 %17, ptr %18, align 8, !tbaa !86
  %19 = getelementptr inbounds nuw i8, ptr %7, i64 28
  %.not.i5 = icmp eq ptr %3, null
  br i1 %.not.i5, label %ft_vector_to_lv_vector.exit7, label %20

20:                                               ; preds = %ft_vector_to_lv_vector.exit
  %21 = load i64, ptr %3, align 8, !tbaa !83
  %22 = trunc i64 %21 to i32
  %23 = getelementptr inbounds nuw i8, ptr %3, i64 8
  %24 = load i64, ptr %23, align 8, !tbaa !84
  %25 = trunc i64 %24 to i32
  br label %ft_vector_to_lv_vector.exit7

ft_vector_to_lv_vector.exit7:                     ; preds = %ft_vector_to_lv_vector.exit, %20
  %.sink.i6 = phi i32 [ %22, %20 ], [ 0, %ft_vector_to_lv_vector.exit ]
  %26 = phi i32 [ %25, %20 ], [ 0, %ft_vector_to_lv_vector.exit ]
  store i32 %.sink.i6, ptr %19, align 4, !tbaa !85
  %27 = getelementptr inbounds nuw i8, ptr %7, i64 32
  store i32 %26, ptr %27, align 8, !tbaa !86
  %28 = getelementptr inbounds nuw i8, ptr %7, i64 12
  %.not.i8 = icmp eq ptr %4, null
  br i1 %.not.i8, label %ft_vector_to_lv_vector.exit10, label %29

29:                                               ; preds = %ft_vector_to_lv_vector.exit7
  %30 = load i64, ptr %4, align 8, !tbaa !83
  %31 = trunc i64 %30 to i32
  %32 = getelementptr inbounds nuw i8, ptr %4, i64 8
  %33 = load i64, ptr %32, align 8, !tbaa !84
  %34 = trunc i64 %33 to i32
  br label %ft_vector_to_lv_vector.exit10

ft_vector_to_lv_vector.exit10:                    ; preds = %ft_vector_to_lv_vector.exit7, %29
  %.sink.i9 = phi i32 [ %31, %29 ], [ 0, %ft_vector_to_lv_vector.exit7 ]
  %35 = phi i32 [ %34, %29 ], [ 0, %ft_vector_to_lv_vector.exit7 ]
  store i32 %.sink.i9, ptr %28, align 4, !tbaa !85
  %36 = getelementptr inbounds nuw i8, ptr %7, i64 16
  store i32 %35, ptr %36, align 8, !tbaa !86
  %37 = getelementptr inbounds nuw i8, ptr %8, i64 32
  %38 = load ptr, ptr %37, align 8, !tbaa !59
  %.not.i11 = icmp eq ptr %38, null
  br i1 %.not.i11, label %outline_send_event.exit, label %39

39:                                               ; preds = %ft_vector_to_lv_vector.exit10
  call void @llvm.lifetime.start.p0(i64 56, ptr nonnull %6) #9
  call void @lv_memset(ptr noundef nonnull %6, i8 noundef zeroext 0, i64 noundef 56) #9
  %40 = getelementptr inbounds nuw i8, ptr %6, i64 16
  store i32 36, ptr %40, align 8, !tbaa !62
  %41 = getelementptr inbounds nuw i8, ptr %6, i64 32
  store ptr %7, ptr %41, align 8, !tbaa !65
  %42 = getelementptr inbounds nuw i8, ptr %6, i64 24
  store ptr null, ptr %42, align 8, !tbaa !66
  %43 = load ptr, ptr %37, align 8, !tbaa !59
  call void %43(ptr noundef nonnull %6) #9
  call void @llvm.lifetime.end.p0(i64 56, ptr nonnull %6) #9
  br label %outline_send_event.exit

outline_send_event.exit:                          ; preds = %ft_vector_to_lv_vector.exit10, %39
  %.0.i = phi i32 [ 1, %39 ], [ 0, %ft_vector_to_lv_vector.exit10 ]
  call void @llvm.lifetime.end.p0(i64 48, ptr nonnull %7) #9
  ret i32 %.0.i
}